target datalayout = "e-m:e-p270:32:32-p271:32:32-p272:64:64-i64:64-i128:128-f80:128-n8:16:32:64-S128"
target triple = "x86_64-pc-linux-gnu"

%struct.buf_t = type { i32, ptr, i32, i32, i8, i8 }

@tree_sock_addr = external global [0 x i8], align 1

; Function Attrs: nounwind uwtable
define dso_local i32 @spawn_resp_send_to_stepd(ptr noundef %0, ptr noundef %1) #0 {
  %3 = alloca ptr, align 8
  %4 = alloca ptr, align 8
  %5 = alloca ptr, align 8
  %6 = alloca i32, align 4
  %7 = alloca i16, align 2
  store ptr %0, ptr %3, align 8
  store ptr %1, ptr %4, align 8
  call void @llvm.lifetime.start.p0(i64 8, ptr %5) #7
  call void @llvm.lifetime.start.p0(i64 4, ptr %6) #7
  call void @llvm.lifetime.start.p0(i64 2, ptr %7) #7
  %8 = call ptr @slurm_init_buf(i32 noundef 1024)
  store ptr %8, ptr %5, align 8
  store i16 3, ptr %7, align 2
  %9 = load i16, ptr %7, align 2
  %10 = load ptr, ptr %5, align 8
  call void @slurm_pack16(i16 noundef zeroext %9, ptr noundef %10)
  %11 = load ptr, ptr %3, align 8
  %12 = load ptr, ptr %5, align 8
  call void @spawn_resp_pack(ptr noundef %11, ptr noundef %12)
  %13 = load ptr, ptr %4, align 8
  %14 = load ptr, ptr %5, align 8
  %15 = getelementptr inbounds nuw %struct.buf_t, ptr %14, i32 0, i32 3
  %16 = load i32, ptr %15, align 4
  %17 = load ptr, ptr %5, align 8
  %18 = getelementptr inbounds nuw %struct.buf_t, ptr %17, i32 0, i32 1
  %19 = load ptr, ptr %18, align 8
  %20 = call i32 @slurm_forward_data(ptr noundef %13, ptr noundef @tree_sock_addr, i32 noundef %16, ptr noundef %19)
  store i32 %20, ptr %6, align 4
  br label %21

21:                                               ; preds = %2
  %22 = load ptr, ptr %5, align 8
  %23 = icmp ne ptr %22, null
  br i1 %23, label %24, label %26

24:                                               ; preds = %21
  %25 = load ptr, ptr %5, align 8
  call void @slurm_free_buf(ptr noundef %25)
  br label %26

26:                                               ; preds = %24, %21
  store ptr null, ptr %5, align 8
  br label %27

27:                                               ; preds = %26
  br label %28

28:                                               ; preds = %27
  %29 = load i32, ptr %6, align 4
  call void @llvm.lifetime.end.p0(i64 2, ptr %7) #7
  call void @llvm.lifetime.end.p0(i64 4, ptr %6) #7
  call void @llvm.lifetime.end.p0(i64 8, ptr %5) #7
  ret i32 %29
}