; Function Attrs: nounwind uwtable
define dso_local i32 @spawn_resp_send_to_stepd(ptr noundef readonly captures(none) %0, ptr noundef %1) local_unnamed_addr #0 {
  %3 = tail call ptr @slurm_init_buf(i32 noundef 1024) #10
  tail call void @slurm_pack16(i16 noundef zeroext 3, ptr noundef %3) #10
  tail call void @spawn_resp_pack(ptr noundef %0, ptr noundef %3)
  %4 = getelementptr inbounds nuw i8, ptr %3, i64 20
  %5 = load i32, ptr %4, align 4
  %6 = getelementptr inbounds nuw i8, ptr %3, i64 8
  %7 = load ptr, ptr %6, align 8
  %8 = tail call i32 @slurm_forward_data(ptr noundef %1, ptr noundef nonnull @tree_sock_addr, i32 noundef %5, ptr noundef %7) #10
  tail call void @slurm_free_buf(ptr noundef nonnull %3) #10
  ret i32 %8
}